#include <math.h>
#include <stdio.h>
#include <stdlib.h>
#include <string.h>

int main(){
    int n,k,i,j,h=0;
    int s[1000],g[1000];
    scanf("%d %d",&n,&k);
    for(i=0;i<=n-1;i++){
        scanf("%d",&(s[i]));
    }
    for(i=0;i<=n-1;i++){
        g[i]=k-s[i];
        for(j=0;j<=n-1;j++){
         if(g[i]==s[j]){
         h++;
         }
        }   
    }
    if(h==0){
        printf("no");
    }else{
        printf("yes");
    }
    
    return 0;
}
